ARM GAS  C:\Users\PAVAND~1\AppData\Local\Temp\ccYk5Xa4.s 			page 1


   1              		.cpu cortex-m0
   2              		.fpu softvfp
   3              		.eabi_attribute 20, 1
   4              		.eabi_attribute 21, 1
   5              		.eabi_attribute 23, 3
   6              		.eabi_attribute 24, 1
   7              		.eabi_attribute 25, 1
   8              		.eabi_attribute 26, 1
   9              		.eabi_attribute 30, 6
  10              		.eabi_attribute 34, 0
  11              		.eabi_attribute 18, 4
  12              		.code	16
  13              		.file	"BLE_1_gatt.c"
  14              		.text
  15              	.Ltext0:
  16              		.cfi_sections	.debug_frame
  17              		.comm	cyBle_state,1,1
  18              		.global	cyBle_gatts
  19              		.section	.rodata
  20              		.align	2
  21              		.type	cyBle_gatts, %object
  22              		.size	cyBle_gatts, 6
  23              	cyBle_gatts:
  24 0000 0800     		.short	8
  25 0002 0A00     		.short	10
  26 0004 0B00     		.short	11
  27              		.data
  28              		.align	2
  29              		.type	cyBle_attValues, %object
  30              		.size	cyBle_attValues, 67
  31              	cyBle_attValues:
  32 0000 42       		.byte	66
  33 0001 4C       		.byte	76
  34 0002 45       		.byte	69
  35 0003 20       		.byte	32
  36 0004 4C       		.byte	76
  37 0005 61       		.byte	97
  38 0006 62       		.byte	98
  39 0007 20       		.byte	32
  40 0008 34       		.byte	52
  41 0009 20       		.byte	32
  42 000a 47       		.byte	71
  43 000b 72       		.byte	114
  44 000c 6F       		.byte	111
  45 000d 75       		.byte	117
  46 000e 70       		.byte	112
  47 000f 20       		.byte	32
  48 0010 32       		.byte	50
  49 0011 C0       		.byte	-64
  50 0012 00       		.byte	0
  51 0013 06       		.byte	6
  52 0014 00       		.byte	0
  53 0015 28       		.byte	40
  54 0016 00       		.byte	0
  55 0017 00       		.byte	0
  56 0018 00       		.byte	0
  57 0019 E8       		.byte	-24
ARM GAS  C:\Users\PAVAND~1\AppData\Local\Temp\ccYk5Xa4.s 			page 2


  58 001a 03       		.byte	3
  59 001b 00       		.byte	0
  60 001c 00       		.byte	0
  61 001d 00       		.byte	0
  62 001e 00       		.byte	0
  63 001f 00       		.byte	0
  64 0020 00       		.byte	0
  65 0021 43       		.byte	67
  66 0022 61       		.byte	97
  67 0023 70       		.byte	112
  68 0024 53       		.byte	83
  69 0025 65       		.byte	101
  70 0026 6E       		.byte	110
  71 0027 73       		.byte	115
  72 0028 65       		.byte	101
  73 0029 20       		.byte	32
  74 002a 53       		.byte	83
  75 002b 6C       		.byte	108
  76 002c 69       		.byte	105
  77 002d 64       		.byte	100
  78 002e 65       		.byte	101
  79 002f 72       		.byte	114
  80 0030 00       		.byte	0
  81 0031 00       		.byte	0
  82 0032 00       		.byte	0
  83 0033 00       		.byte	0
  84 0034 52       		.byte	82
  85 0035 47       		.byte	71
  86 0036 42       		.byte	66
  87 0037 20       		.byte	32
  88 0038 4C       		.byte	76
  89 0039 45       		.byte	69
  90 003a 44       		.byte	68
  91 003b 20       		.byte	32
  92 003c 43       		.byte	67
  93 003d 6F       		.byte	111
  94 003e 6E       		.byte	110
  95 003f 74       		.byte	116
  96 0040 72       		.byte	114
  97 0041 6F       		.byte	111
  98 0042 6C       		.byte	108
  99              		.global	cyBle_attValuesCCCDFlashMemory
 100 0043 00       		.section	.rodata
 101 0006 00000000 		.align	7
 101      00000000 
 101      00000000 
 101      00000000 
 101      00000000 
 102              		.type	cyBle_attValuesCCCDFlashMemory, %object
 103              		.size	cyBle_attValuesCCCDFlashMemory, 30
 104              	cyBle_attValuesCCCDFlashMemory:
 105 0080 00000000 		.space	30
 105      00000000 
 105      00000000 
 105      00000000 
 105      00000000 
 106              		.comm	cyBle_attValuesCCCD,6,4
ARM GAS  C:\Users\PAVAND~1\AppData\Local\Temp\ccYk5Xa4.s 			page 3


 107              		.global	cyBle_gattDB
 108 009e 0000     		.align	2
 109              		.type	cyBle_gattDB, %object
 110              		.size	cyBle_gattDB, 460
 111              	cyBle_gattDB:
 112 00a0 0100     		.short	1
 113 00a2 0028     		.short	10240
 114 00a4 01000000 		.word	1
 115 00a8 0700     		.short	7
 116 00aa 0000     		.space	2
 117 00ac 0018     		.short	6144
 118 00ae 0000     		.space	2
 119 00b0 00000000 		.word	0
 120 00b4 0200     		.short	2
 121 00b6 0328     		.short	10243
 122 00b8 01020000 		.word	513
 123 00bc 0300     		.short	3
 124 00be 0000     		.space	2
 125 00c0 002A     		.short	10752
 126 00c2 0000     		.space	2
 127 00c4 00000000 		.word	0
 128 00c8 0300     		.short	3
 129 00ca 002A     		.short	10752
 130 00cc 01020000 		.word	513
 131 00d0 0300     		.short	3
 132 00d2 0000     		.space	2
 133 00d4 1100     		.short	17
 134 00d6 0000     		.space	2
 135 00d8 00000000 		.word	cyBle_attValues
 136 00dc 0400     		.short	4
 137 00de 0328     		.short	10243
 138 00e0 01020000 		.word	513
 139 00e4 0500     		.short	5
 140 00e6 0000     		.space	2
 141 00e8 012A     		.short	10753
 142 00ea 0000     		.space	2
 143 00ec 00000000 		.word	0
 144 00f0 0500     		.short	5
 145 00f2 012A     		.short	10753
 146 00f4 01020000 		.word	513
 147 00f8 0500     		.short	5
 148 00fa 0000     		.space	2
 149 00fc 0200     		.short	2
 150 00fe 0000     		.space	2
 151 0100 11000000 		.word	cyBle_attValues+17
 152 0104 0600     		.short	6
 153 0106 0328     		.short	10243
 154 0108 01020000 		.word	513
 155 010c 0700     		.short	7
 156 010e 0000     		.space	2
 157 0110 042A     		.short	10756
 158 0112 0000     		.space	2
 159 0114 00000000 		.word	0
 160 0118 0700     		.short	7
 161 011a 042A     		.short	10756
 162 011c 01020000 		.word	513
 163 0120 0700     		.short	7
ARM GAS  C:\Users\PAVAND~1\AppData\Local\Temp\ccYk5Xa4.s 			page 4


 164 0122 0000     		.space	2
 165 0124 0800     		.short	8
 166 0126 0000     		.space	2
 167 0128 13000000 		.word	cyBle_attValues+19
 168 012c 0800     		.short	8
 169 012e 0028     		.short	10240
 170 0130 01000000 		.word	1
 171 0134 0B00     		.short	11
 172 0136 0000     		.space	2
 173 0138 0118     		.short	6145
 174 013a 0000     		.space	2
 175 013c 00000000 		.word	0
 176 0140 0900     		.short	9
 177 0142 0328     		.short	10243
 178 0144 01220000 		.word	8705
 179 0148 0B00     		.short	11
 180 014a 0000     		.space	2
 181 014c 052A     		.short	10757
 182 014e 0000     		.space	2
 183 0150 00000000 		.word	0
 184 0154 0A00     		.short	10
 185 0156 052A     		.short	10757
 186 0158 01220000 		.word	8705
 187 015c 0B00     		.short	11
 188 015e 0000     		.space	2
 189 0160 0400     		.short	4
 190 0162 0000     		.space	2
 191 0164 1B000000 		.word	cyBle_attValues+27
 192 0168 0B00     		.short	11
 193 016a 0229     		.short	10498
 194 016c 040A0000 		.word	2564
 195 0170 0B00     		.short	11
 196 0172 0000     		.space	2
 197 0174 0200     		.short	2
 198 0176 0000     		.space	2
 199 0178 00000000 		.word	cyBle_attValuesCCCD
 200 017c 0C00     		.short	12
 201 017e 0028     		.short	10240
 202 0180 01000000 		.word	1
 203 0184 1300     		.short	19
 204 0186 0000     		.space	2
 205 0188 B5CA     		.short	-13643
 206 018a 0000     		.space	2
 207 018c 00000000 		.word	0
 208 0190 0D00     		.short	13
 209 0192 0328     		.short	10243
 210 0194 011A0000 		.word	6657
 211 0198 0F00     		.short	15
 212 019a 0000     		.space	2
 213 019c A1CA     		.short	-13663
 214 019e 0000     		.space	2
 215 01a0 00000000 		.word	0
 216 01a4 0E00     		.short	14
 217 01a6 A1CA     		.short	-13663
 218 01a8 041A0000 		.word	6660
 219 01ac 0F00     		.short	15
 220 01ae 0000     		.space	2
ARM GAS  C:\Users\PAVAND~1\AppData\Local\Temp\ccYk5Xa4.s 			page 5


 221 01b0 0100     		.short	1
 222 01b2 0000     		.space	2
 223 01b4 1F000000 		.word	cyBle_attValues+31
 224 01b8 0F00     		.short	15
 225 01ba 0229     		.short	10498
 226 01bc 040A0000 		.word	2564
 227 01c0 0F00     		.short	15
 228 01c2 0000     		.space	2
 229 01c4 0200     		.short	2
 230 01c6 0000     		.space	2
 231 01c8 02000000 		.word	cyBle_attValuesCCCD+2
 232 01cc 1000     		.short	16
 233 01ce 0328     		.short	10243
 234 01d0 01100000 		.word	4097
 235 01d4 1300     		.short	19
 236 01d6 0000     		.space	2
 237 01d8 A2CA     		.short	-13662
 238 01da 0000     		.space	2
 239 01dc 00000000 		.word	0
 240 01e0 1100     		.short	17
 241 01e2 A2CA     		.short	-13662
 242 01e4 00100000 		.word	4096
 243 01e8 1300     		.short	19
 244 01ea 0000     		.space	2
 245 01ec 0100     		.short	1
 246 01ee 0000     		.space	2
 247 01f0 20000000 		.word	cyBle_attValues+32
 248 01f4 1200     		.short	18
 249 01f6 0129     		.short	10497
 250 01f8 01020000 		.word	513
 251 01fc 1200     		.short	18
 252 01fe 0000     		.space	2
 253 0200 0F00     		.short	15
 254 0202 0000     		.space	2
 255 0204 21000000 		.word	cyBle_attValues+33
 256 0208 1300     		.short	19
 257 020a 0229     		.short	10498
 258 020c 040A0000 		.word	2564
 259 0210 1300     		.short	19
 260 0212 0000     		.space	2
 261 0214 0200     		.short	2
 262 0216 0000     		.space	2
 263 0218 04000000 		.word	cyBle_attValuesCCCD+4
 264 021c 1400     		.short	20
 265 021e 0028     		.short	10240
 266 0220 01000000 		.word	1
 267 0224 1700     		.short	23
 268 0226 0000     		.space	2
 269 0228 BBCB     		.short	-13381
 270 022a 0000     		.space	2
 271 022c 00000000 		.word	0
 272 0230 1500     		.short	21
 273 0232 0328     		.short	10243
 274 0234 010A0000 		.word	2561
 275 0238 1700     		.short	23
 276 023a 0000     		.space	2
 277 023c B1CB     		.short	-13391
ARM GAS  C:\Users\PAVAND~1\AppData\Local\Temp\ccYk5Xa4.s 			page 6


 278 023e 0000     		.space	2
 279 0240 00000000 		.word	0
 280 0244 1600     		.short	22
 281 0246 B1CB     		.short	-13391
 282 0248 040A0000 		.word	2564
 283 024c 1700     		.short	23
 284 024e 0000     		.space	2
 285 0250 0400     		.short	4
 286 0252 0000     		.space	2
 287 0254 30000000 		.word	cyBle_attValues+48
 288 0258 1700     		.short	23
 289 025a 0129     		.short	10497
 290 025c 01020000 		.word	513
 291 0260 1700     		.short	23
 292 0262 0000     		.space	2
 293 0264 0F00     		.short	15
 294 0266 0000     		.space	2
 295 0268 34000000 		.word	cyBle_attValues+52
 296 026c 00000000 		.section	.text.CyBle_GattsReInitGattDb,"ax",%progbits
 296      00000000 
 296      00000000 
 296      00000000 
 296      00000000 
 297              		.align	2
 298              		.global	CyBle_GattsReInitGattDb
 299              		.code	16
 300              		.thumb_func
 301              		.type	CyBle_GattsReInitGattDb, %function
 302              	CyBle_GattsReInitGattDb:
 303              	.LFB2:
 304              		.file 1 ".\\Generated_Source\\PSoC4\\BLE_1_gatt.c"
   1:.\Generated_Source\PSoC4/BLE_1_gatt.c **** /*******************************************************************************
   2:.\Generated_Source\PSoC4/BLE_1_gatt.c **** File Name: CYBLE_gatt.c
   3:.\Generated_Source\PSoC4/BLE_1_gatt.c **** Version 1.20
   4:.\Generated_Source\PSoC4/BLE_1_gatt.c **** 
   5:.\Generated_Source\PSoC4/BLE_1_gatt.c **** Description:
   6:.\Generated_Source\PSoC4/BLE_1_gatt.c ****  This file contains the source code for the GATT API of the BLE Component.
   7:.\Generated_Source\PSoC4/BLE_1_gatt.c **** 
   8:.\Generated_Source\PSoC4/BLE_1_gatt.c **** ********************************************************************************
   9:.\Generated_Source\PSoC4/BLE_1_gatt.c **** Copyright 2014-2015, Cypress Semiconductor Corporation.  All rights reserved.
  10:.\Generated_Source\PSoC4/BLE_1_gatt.c **** You may use this file only in accordance with the license, terms, conditions,
  11:.\Generated_Source\PSoC4/BLE_1_gatt.c **** disclaimers, and limitations in the end user license agreement accompanying
  12:.\Generated_Source\PSoC4/BLE_1_gatt.c **** the software package with which this file was provided.
  13:.\Generated_Source\PSoC4/BLE_1_gatt.c **** *******************************************************************************/
  14:.\Generated_Source\PSoC4/BLE_1_gatt.c **** 
  15:.\Generated_Source\PSoC4/BLE_1_gatt.c **** 
  16:.\Generated_Source\PSoC4/BLE_1_gatt.c **** #include "BLE_1_eventHandler.h"
  17:.\Generated_Source\PSoC4/BLE_1_gatt.c **** 
  18:.\Generated_Source\PSoC4/BLE_1_gatt.c **** 
  19:.\Generated_Source\PSoC4/BLE_1_gatt.c **** /***************************************
  20:.\Generated_Source\PSoC4/BLE_1_gatt.c **** ##Global variables
  21:.\Generated_Source\PSoC4/BLE_1_gatt.c **** ***************************************/
  22:.\Generated_Source\PSoC4/BLE_1_gatt.c **** 
  23:.\Generated_Source\PSoC4/BLE_1_gatt.c **** CYBLE_STATE_T cyBle_state;
  24:.\Generated_Source\PSoC4/BLE_1_gatt.c **** 
  25:.\Generated_Source\PSoC4/BLE_1_gatt.c **** 
  26:.\Generated_Source\PSoC4/BLE_1_gatt.c **** #if(CYBLE_GATT_ROLE_SERVER)
ARM GAS  C:\Users\PAVAND~1\AppData\Local\Temp\ccYk5Xa4.s 			page 7


  27:.\Generated_Source\PSoC4/BLE_1_gatt.c ****     
  28:.\Generated_Source\PSoC4/BLE_1_gatt.c ****     const CYBLE_GATTS_T cyBle_gatts =
  29:.\Generated_Source\PSoC4/BLE_1_gatt.c **** {
  30:.\Generated_Source\PSoC4/BLE_1_gatt.c ****     0x0008u,    /* Handle of the GATT service */
  31:.\Generated_Source\PSoC4/BLE_1_gatt.c ****     0x000Au,    /* Handle of the Service Changed characteristic */
  32:.\Generated_Source\PSoC4/BLE_1_gatt.c ****     0x000Bu,    /* Handle of the Client Characteristic Configuration descriptor */
  33:.\Generated_Source\PSoC4/BLE_1_gatt.c **** };
  34:.\Generated_Source\PSoC4/BLE_1_gatt.c ****     
  35:.\Generated_Source\PSoC4/BLE_1_gatt.c ****     static uint8 cyBle_attValues[0x43u] = {
  36:.\Generated_Source\PSoC4/BLE_1_gatt.c **** /* Device Name */
  37:.\Generated_Source\PSoC4/BLE_1_gatt.c **** (uint8)'B', (uint8)'L', (uint8)'E', (uint8)' ', (uint8)'L', (uint8)'a', (uint8)'b', (uint8)' ', (ui
  38:.\Generated_Source\PSoC4/BLE_1_gatt.c **** (uint8)'G', (uint8)'r', (uint8)'o', (uint8)'u', (uint8)'p', (uint8)' ', (uint8)'2', 
  39:.\Generated_Source\PSoC4/BLE_1_gatt.c **** 
  40:.\Generated_Source\PSoC4/BLE_1_gatt.c **** /* Appearance */
  41:.\Generated_Source\PSoC4/BLE_1_gatt.c **** 0xC0u, 0x00u, 
  42:.\Generated_Source\PSoC4/BLE_1_gatt.c **** 
  43:.\Generated_Source\PSoC4/BLE_1_gatt.c **** /* Peripheral Preferred Connection Parameters */
  44:.\Generated_Source\PSoC4/BLE_1_gatt.c **** 0x06u, 0x00u, 0x28u, 0x00u, 0x00u, 0x00u, 0xE8u, 0x03u, 
  45:.\Generated_Source\PSoC4/BLE_1_gatt.c **** 
  46:.\Generated_Source\PSoC4/BLE_1_gatt.c **** /* Service Changed */
  47:.\Generated_Source\PSoC4/BLE_1_gatt.c **** 0x00u, 0x00u, 0x00u, 0x00u, 
  48:.\Generated_Source\PSoC4/BLE_1_gatt.c **** 
  49:.\Generated_Source\PSoC4/BLE_1_gatt.c **** /* CapSense Proximity Characteristic */
  50:.\Generated_Source\PSoC4/BLE_1_gatt.c **** 0x00u, 
  51:.\Generated_Source\PSoC4/BLE_1_gatt.c **** 
  52:.\Generated_Source\PSoC4/BLE_1_gatt.c **** /* CapSense Slider Characteristic */
  53:.\Generated_Source\PSoC4/BLE_1_gatt.c **** 0x00u, 
  54:.\Generated_Source\PSoC4/BLE_1_gatt.c **** 
  55:.\Generated_Source\PSoC4/BLE_1_gatt.c **** /* Characteristic User Description */
  56:.\Generated_Source\PSoC4/BLE_1_gatt.c **** (uint8)'C', (uint8)'a', (uint8)'p', (uint8)'S', (uint8)'e', (uint8)'n', (uint8)'s', (uint8)'e', (ui
  57:.\Generated_Source\PSoC4/BLE_1_gatt.c **** (uint8)'l', (uint8)'i', (uint8)'d', (uint8)'e', (uint8)'r', 
  58:.\Generated_Source\PSoC4/BLE_1_gatt.c **** 
  59:.\Generated_Source\PSoC4/BLE_1_gatt.c **** /* RGB LED Characteristic */
  60:.\Generated_Source\PSoC4/BLE_1_gatt.c **** 0x00u, 0x00u, 0x00u, 0x00u, 
  61:.\Generated_Source\PSoC4/BLE_1_gatt.c **** 
  62:.\Generated_Source\PSoC4/BLE_1_gatt.c **** /* Characteristic User Description */
  63:.\Generated_Source\PSoC4/BLE_1_gatt.c **** (uint8)'R', (uint8)'G', (uint8)'B', (uint8)' ', (uint8)'L', (uint8)'E', (uint8)'D', (uint8)' ', (ui
  64:.\Generated_Source\PSoC4/BLE_1_gatt.c **** (uint8)'n', (uint8)'t', (uint8)'r', (uint8)'o', (uint8)'l', 
  65:.\Generated_Source\PSoC4/BLE_1_gatt.c **** 
  66:.\Generated_Source\PSoC4/BLE_1_gatt.c **** };
  67:.\Generated_Source\PSoC4/BLE_1_gatt.c **** 
  68:.\Generated_Source\PSoC4/BLE_1_gatt.c **** #if defined(__GNUC__) || defined(__ARMCC_VERSION)
  69:.\Generated_Source\PSoC4/BLE_1_gatt.c **** const uint8 cyBle_attValuesCCCDFlashMemory[CYBLE_GAP_MAX_BONDED_DEVICE + 1u][CYBLE_GATT_DB_CCCD_COU
  70:.\Generated_Source\PSoC4/BLE_1_gatt.c **** #elif defined(__ICCARM__)
  71:.\Generated_Source\PSoC4/BLE_1_gatt.c **** /* The cyBle_attValuesCCCDFlashMemory[] should be aligned to the size of a Flash row */
  72:.\Generated_Source\PSoC4/BLE_1_gatt.c **** #pragma data_alignment=CY_FLASH_SIZEOF_ROW
  73:.\Generated_Source\PSoC4/BLE_1_gatt.c **** const uint8 cyBle_attValuesCCCDFlashMemory[CYBLE_GAP_MAX_BONDED_DEVICE + 1u][CYBLE_GATT_DB_CCCD_COU
  74:.\Generated_Source\PSoC4/BLE_1_gatt.c **** #endif /* defined(__GNUC__) || defined(__ARMCC_VERSION) */
  75:.\Generated_Source\PSoC4/BLE_1_gatt.c **** {
  76:.\Generated_Source\PSoC4/BLE_1_gatt.c **** /* Client Characteristic Configuration */
  77:.\Generated_Source\PSoC4/BLE_1_gatt.c **** 0x00u, 0x00u, 
  78:.\Generated_Source\PSoC4/BLE_1_gatt.c **** 
  79:.\Generated_Source\PSoC4/BLE_1_gatt.c **** /* Client Characteristic Configuration */
  80:.\Generated_Source\PSoC4/BLE_1_gatt.c **** 0x00u, 0x00u, 
  81:.\Generated_Source\PSoC4/BLE_1_gatt.c **** 
  82:.\Generated_Source\PSoC4/BLE_1_gatt.c **** /* Client Characteristic Configuration */
  83:.\Generated_Source\PSoC4/BLE_1_gatt.c **** 0x00u, 0x00u, 
ARM GAS  C:\Users\PAVAND~1\AppData\Local\Temp\ccYk5Xa4.s 			page 8


  84:.\Generated_Source\PSoC4/BLE_1_gatt.c **** 
  85:.\Generated_Source\PSoC4/BLE_1_gatt.c **** },
  86:.\Generated_Source\PSoC4/BLE_1_gatt.c **** {
  87:.\Generated_Source\PSoC4/BLE_1_gatt.c **** /* Client Characteristic Configuration */
  88:.\Generated_Source\PSoC4/BLE_1_gatt.c **** 0x00u, 0x00u, 
  89:.\Generated_Source\PSoC4/BLE_1_gatt.c **** 
  90:.\Generated_Source\PSoC4/BLE_1_gatt.c **** /* Client Characteristic Configuration */
  91:.\Generated_Source\PSoC4/BLE_1_gatt.c **** 0x00u, 0x00u, 
  92:.\Generated_Source\PSoC4/BLE_1_gatt.c **** 
  93:.\Generated_Source\PSoC4/BLE_1_gatt.c **** /* Client Characteristic Configuration */
  94:.\Generated_Source\PSoC4/BLE_1_gatt.c **** 0x00u, 0x00u, 
  95:.\Generated_Source\PSoC4/BLE_1_gatt.c **** 
  96:.\Generated_Source\PSoC4/BLE_1_gatt.c **** },
  97:.\Generated_Source\PSoC4/BLE_1_gatt.c **** {
  98:.\Generated_Source\PSoC4/BLE_1_gatt.c **** /* Client Characteristic Configuration */
  99:.\Generated_Source\PSoC4/BLE_1_gatt.c **** 0x00u, 0x00u, 
 100:.\Generated_Source\PSoC4/BLE_1_gatt.c **** 
 101:.\Generated_Source\PSoC4/BLE_1_gatt.c **** /* Client Characteristic Configuration */
 102:.\Generated_Source\PSoC4/BLE_1_gatt.c **** 0x00u, 0x00u, 
 103:.\Generated_Source\PSoC4/BLE_1_gatt.c **** 
 104:.\Generated_Source\PSoC4/BLE_1_gatt.c **** /* Client Characteristic Configuration */
 105:.\Generated_Source\PSoC4/BLE_1_gatt.c **** 0x00u, 0x00u, 
 106:.\Generated_Source\PSoC4/BLE_1_gatt.c **** 
 107:.\Generated_Source\PSoC4/BLE_1_gatt.c **** },
 108:.\Generated_Source\PSoC4/BLE_1_gatt.c **** {
 109:.\Generated_Source\PSoC4/BLE_1_gatt.c **** /* Client Characteristic Configuration */
 110:.\Generated_Source\PSoC4/BLE_1_gatt.c **** 0x00u, 0x00u, 
 111:.\Generated_Source\PSoC4/BLE_1_gatt.c **** 
 112:.\Generated_Source\PSoC4/BLE_1_gatt.c **** /* Client Characteristic Configuration */
 113:.\Generated_Source\PSoC4/BLE_1_gatt.c **** 0x00u, 0x00u, 
 114:.\Generated_Source\PSoC4/BLE_1_gatt.c **** 
 115:.\Generated_Source\PSoC4/BLE_1_gatt.c **** /* Client Characteristic Configuration */
 116:.\Generated_Source\PSoC4/BLE_1_gatt.c **** 0x00u, 0x00u, 
 117:.\Generated_Source\PSoC4/BLE_1_gatt.c **** 
 118:.\Generated_Source\PSoC4/BLE_1_gatt.c **** },
 119:.\Generated_Source\PSoC4/BLE_1_gatt.c **** {
 120:.\Generated_Source\PSoC4/BLE_1_gatt.c **** /* Client Characteristic Configuration */
 121:.\Generated_Source\PSoC4/BLE_1_gatt.c **** 0x00u, 0x00u, 
 122:.\Generated_Source\PSoC4/BLE_1_gatt.c **** 
 123:.\Generated_Source\PSoC4/BLE_1_gatt.c **** /* Client Characteristic Configuration */
 124:.\Generated_Source\PSoC4/BLE_1_gatt.c **** 0x00u, 0x00u, 
 125:.\Generated_Source\PSoC4/BLE_1_gatt.c **** 
 126:.\Generated_Source\PSoC4/BLE_1_gatt.c **** /* Client Characteristic Configuration */
 127:.\Generated_Source\PSoC4/BLE_1_gatt.c **** 0x00u, 0x00u, 
 128:.\Generated_Source\PSoC4/BLE_1_gatt.c **** 
 129:.\Generated_Source\PSoC4/BLE_1_gatt.c **** },
 130:.\Generated_Source\PSoC4/BLE_1_gatt.c **** };
 131:.\Generated_Source\PSoC4/BLE_1_gatt.c **** uint8 cyBle_attValuesCCCD[CYBLE_GATT_DB_CCCD_COUNT];
 132:.\Generated_Source\PSoC4/BLE_1_gatt.c **** 
 133:.\Generated_Source\PSoC4/BLE_1_gatt.c **** const CYBLE_GATTS_DB_T cyBle_gattDB[0x17u] = {
 134:.\Generated_Source\PSoC4/BLE_1_gatt.c **** { 0x0001u, 0x2800u /* Primary service                     */, 0x00000001u /*           */, 0x0007u,
 135:.\Generated_Source\PSoC4/BLE_1_gatt.c **** { 0x0002u, 0x2803u /* Characteristic                      */, 0x00000201u /* rd        */, 0x0003u,
 136:.\Generated_Source\PSoC4/BLE_1_gatt.c **** { 0x0003u, 0x2A00u /* Device Name                         */, 0x00000201u /* rd        */, 0x0003u,
 137:.\Generated_Source\PSoC4/BLE_1_gatt.c **** { 0x0004u, 0x2803u /* Characteristic                      */, 0x00000201u /* rd        */, 0x0005u,
 138:.\Generated_Source\PSoC4/BLE_1_gatt.c **** { 0x0005u, 0x2A01u /* Appearance                          */, 0x00000201u /* rd        */, 0x0005u,
 139:.\Generated_Source\PSoC4/BLE_1_gatt.c **** { 0x0006u, 0x2803u /* Characteristic                      */, 0x00000201u /* rd        */, 0x0007u,
 140:.\Generated_Source\PSoC4/BLE_1_gatt.c **** { 0x0007u, 0x2A04u /* Peripheral Preferred Connection Par */, 0x00000201u /* rd        */, 0x0007u,
ARM GAS  C:\Users\PAVAND~1\AppData\Local\Temp\ccYk5Xa4.s 			page 9


 141:.\Generated_Source\PSoC4/BLE_1_gatt.c **** { 0x0008u, 0x2800u /* Primary service                     */, 0x00000001u /*           */, 0x000Bu,
 142:.\Generated_Source\PSoC4/BLE_1_gatt.c **** { 0x0009u, 0x2803u /* Characteristic                      */, 0x00002201u /* rd,ind    */, 0x000Bu,
 143:.\Generated_Source\PSoC4/BLE_1_gatt.c **** { 0x000Au, 0x2A05u /* Service Changed                     */, 0x00002201u /* rd,ind    */, 0x000Bu,
 144:.\Generated_Source\PSoC4/BLE_1_gatt.c **** { 0x000Bu, 0x2902u /* Client Characteristic Configuration */, 0x00000A04u /* rd,wr     */, 0x000Bu,
 145:.\Generated_Source\PSoC4/BLE_1_gatt.c **** { 0x000Cu, 0x2800u /* Primary service                     */, 0x00000001u /*           */, 0x0013u,
 146:.\Generated_Source\PSoC4/BLE_1_gatt.c **** { 0x000Du, 0x2803u /* Characteristic                      */, 0x00001A01u /* rd,wr,ntf */, 0x000Fu,
 147:.\Generated_Source\PSoC4/BLE_1_gatt.c **** { 0x000Eu, 0xCAA1u /* CapSense Proximity Characteristic   */, 0x00001A04u /* rd,wr,ntf */, 0x000Fu,
 148:.\Generated_Source\PSoC4/BLE_1_gatt.c **** { 0x000Fu, 0x2902u /* Client Characteristic Configuration */, 0x00000A04u /* rd,wr     */, 0x000Fu,
 149:.\Generated_Source\PSoC4/BLE_1_gatt.c **** { 0x0010u, 0x2803u /* Characteristic                      */, 0x00001001u /* ntf       */, 0x0013u,
 150:.\Generated_Source\PSoC4/BLE_1_gatt.c **** { 0x0011u, 0xCAA2u /* CapSense Slider Characteristic      */, 0x00001000u /* ntf       */, 0x0013u,
 151:.\Generated_Source\PSoC4/BLE_1_gatt.c **** { 0x0012u, 0x2901u /* Characteristic User Description     */, 0x00000201u /* rd        */, 0x0012u,
 152:.\Generated_Source\PSoC4/BLE_1_gatt.c **** { 0x0013u, 0x2902u /* Client Characteristic Configuration */, 0x00000A04u /* rd,wr     */, 0x0013u,
 153:.\Generated_Source\PSoC4/BLE_1_gatt.c **** { 0x0014u, 0x2800u /* Primary service                     */, 0x00000001u /*           */, 0x0017u,
 154:.\Generated_Source\PSoC4/BLE_1_gatt.c **** { 0x0015u, 0x2803u /* Characteristic                      */, 0x00000A01u /* rd,wr     */, 0x0017u,
 155:.\Generated_Source\PSoC4/BLE_1_gatt.c **** { 0x0016u, 0xCBB1u /* RGB LED Characteristic              */, 0x00000A04u /* rd,wr     */, 0x0017u,
 156:.\Generated_Source\PSoC4/BLE_1_gatt.c **** { 0x0017u, 0x2901u /* Characteristic User Description     */, 0x00000201u /* rd        */, 0x0017u,
 157:.\Generated_Source\PSoC4/BLE_1_gatt.c **** };
 158:.\Generated_Source\PSoC4/BLE_1_gatt.c **** 
 159:.\Generated_Source\PSoC4/BLE_1_gatt.c **** 
 160:.\Generated_Source\PSoC4/BLE_1_gatt.c **** #endif /* (CYBLE_GATT_ROLE_SERVER) */
 161:.\Generated_Source\PSoC4/BLE_1_gatt.c **** 
 162:.\Generated_Source\PSoC4/BLE_1_gatt.c **** #if(CYBLE_GATT_ROLE_CLIENT)
 163:.\Generated_Source\PSoC4/BLE_1_gatt.c ****     
 164:.\Generated_Source\PSoC4/BLE_1_gatt.c **** CYBLE_CLIENT_STATE_T cyBle_clientState;
 165:.\Generated_Source\PSoC4/BLE_1_gatt.c **** CYBLE_GATTC_T cyBle_gattc;
 166:.\Generated_Source\PSoC4/BLE_1_gatt.c ****     
 167:.\Generated_Source\PSoC4/BLE_1_gatt.c **** #endif /* (CYBLE_GATT_ROLE_CLIENT) */
 168:.\Generated_Source\PSoC4/BLE_1_gatt.c **** 
 169:.\Generated_Source\PSoC4/BLE_1_gatt.c **** 
 170:.\Generated_Source\PSoC4/BLE_1_gatt.c **** #if(CYBLE_GATT_ROLE_SERVER)
 171:.\Generated_Source\PSoC4/BLE_1_gatt.c **** 
 172:.\Generated_Source\PSoC4/BLE_1_gatt.c **** /****************************************************************************** 
 173:.\Generated_Source\PSoC4/BLE_1_gatt.c **** ##Function Name: CyBle_GattsReInitGattDb
 174:.\Generated_Source\PSoC4/BLE_1_gatt.c **** *******************************************************************************
 175:.\Generated_Source\PSoC4/BLE_1_gatt.c **** 
 176:.\Generated_Source\PSoC4/BLE_1_gatt.c **** Summary:
 177:.\Generated_Source\PSoC4/BLE_1_gatt.c ****  Reinitializes the GATT database.
 178:.\Generated_Source\PSoC4/BLE_1_gatt.c **** 
 179:.\Generated_Source\PSoC4/BLE_1_gatt.c **** Parameters:
 180:.\Generated_Source\PSoC4/BLE_1_gatt.c ****  None
 181:.\Generated_Source\PSoC4/BLE_1_gatt.c **** 
 182:.\Generated_Source\PSoC4/BLE_1_gatt.c **** Return:
 183:.\Generated_Source\PSoC4/BLE_1_gatt.c ****  CYBLE_API_RESULT_T: An API result states if the API succeeded or failed with
 184:.\Generated_Source\PSoC4/BLE_1_gatt.c ****  error codes:
 185:.\Generated_Source\PSoC4/BLE_1_gatt.c ****   * CYBLE_ERROR_OK: GATT database was reinitialized successfully
 186:.\Generated_Source\PSoC4/BLE_1_gatt.c ****   * CYBLE_ERROR_INVALID_STATE: If the function is called in any state except
 187:.\Generated_Source\PSoC4/BLE_1_gatt.c ****                                 CYBLE_STATE_DISCONNECTED.
 188:.\Generated_Source\PSoC4/BLE_1_gatt.c ****   * Any of the CyBle_GattsDbRegister() stack API function return values.
 189:.\Generated_Source\PSoC4/BLE_1_gatt.c **** 
 190:.\Generated_Source\PSoC4/BLE_1_gatt.c **** ******************************************************************************/
 191:.\Generated_Source\PSoC4/BLE_1_gatt.c **** CYBLE_API_RESULT_T CyBle_GattsReInitGattDb(void)
 192:.\Generated_Source\PSoC4/BLE_1_gatt.c **** {
 305              		.loc 1 192 0
 306              		.cfi_startproc
 307 0000 90B5     		push	{r4, r7, lr}
 308              		.cfi_def_cfa_offset 12
 309              		.cfi_offset 4, -12
ARM GAS  C:\Users\PAVAND~1\AppData\Local\Temp\ccYk5Xa4.s 			page 10


 310              		.cfi_offset 7, -8
 311              		.cfi_offset 14, -4
 312 0002 83B0     		sub	sp, sp, #12
 313              		.cfi_def_cfa_offset 24
 314 0004 00AF     		add	r7, sp, #0
 315              		.cfi_def_cfa_register 7
 193:.\Generated_Source\PSoC4/BLE_1_gatt.c ****     CYBLE_API_RESULT_T apiResult;
 194:.\Generated_Source\PSoC4/BLE_1_gatt.c ****     
 195:.\Generated_Source\PSoC4/BLE_1_gatt.c ****     if(CYBLE_STATE_DISCONNECTED == CyBle_GetState())
 316              		.loc 1 195 0
 317 0006 0C4B     		ldr	r3, .L5
 318 0008 1B78     		ldrb	r3, [r3]
 319 000a 042B     		cmp	r3, #4
 320 000c 09D1     		bne	.L2
 196:.\Generated_Source\PSoC4/BLE_1_gatt.c ****     {
 197:.\Generated_Source\PSoC4/BLE_1_gatt.c ****         apiResult = CyBle_GattsDbRegister(cyBle_gattDB, CYBLE_GATT_DB_INDEX_COUNT, CYBLE_GATT_DB_MA
 321              		.loc 1 197 0
 322 000e BC1D     		add	r4, r7, #6
 323 0010 0A4B     		ldr	r3, .L5+4
 324 0012 181C     		mov	r0, r3
 325 0014 1721     		mov	r1, #23
 326 0016 1122     		mov	r2, #17
 327 0018 FFF7FEFF 		bl	CyBle_GattsDbRegister
 328 001c 031C     		mov	r3, r0
 329 001e 2380     		strh	r3, [r4]
 330 0020 03E0     		b	.L3
 331              	.L2:
 198:.\Generated_Source\PSoC4/BLE_1_gatt.c ****     }
 199:.\Generated_Source\PSoC4/BLE_1_gatt.c ****     else
 200:.\Generated_Source\PSoC4/BLE_1_gatt.c ****     {
 201:.\Generated_Source\PSoC4/BLE_1_gatt.c ****         apiResult = CYBLE_ERROR_INVALID_STATE;
 332              		.loc 1 201 0
 333 0022 BB1D     		add	r3, r7, #6
 334 0024 8322     		mov	r2, #131
 335 0026 5200     		lsl	r2, r2, #1
 336 0028 1A80     		strh	r2, [r3]
 337              	.L3:
 202:.\Generated_Source\PSoC4/BLE_1_gatt.c ****     }
 203:.\Generated_Source\PSoC4/BLE_1_gatt.c ****     
 204:.\Generated_Source\PSoC4/BLE_1_gatt.c ****     return(apiResult);
 338              		.loc 1 204 0
 339 002a BB1D     		add	r3, r7, #6
 340 002c 1B88     		ldrh	r3, [r3]
 205:.\Generated_Source\PSoC4/BLE_1_gatt.c **** }
 341              		.loc 1 205 0
 342 002e 181C     		mov	r0, r3
 343 0030 BD46     		mov	sp, r7
 344 0032 03B0     		add	sp, sp, #12
 345              		@ sp needed
 346 0034 90BD     		pop	{r4, r7, pc}
 347              	.L6:
 348 0036 C046     		.align	2
 349              	.L5:
 350 0038 00000000 		.word	cyBle_state
 351 003c 00000000 		.word	cyBle_gattDB
 352              		.cfi_endproc
 353              	.LFE2:
ARM GAS  C:\Users\PAVAND~1\AppData\Local\Temp\ccYk5Xa4.s 			page 11


 354              		.size	CyBle_GattsReInitGattDb, .-CyBle_GattsReInitGattDb
 355              		.section	.text.CyBle_GattsWriteEventHandler,"ax",%progbits
 356              		.align	2
 357              		.global	CyBle_GattsWriteEventHandler
 358              		.code	16
 359              		.thumb_func
 360              		.type	CyBle_GattsWriteEventHandler, %function
 361              	CyBle_GattsWriteEventHandler:
 362              	.LFB3:
 206:.\Generated_Source\PSoC4/BLE_1_gatt.c **** 
 207:.\Generated_Source\PSoC4/BLE_1_gatt.c **** 
 208:.\Generated_Source\PSoC4/BLE_1_gatt.c **** /****************************************************************************** 
 209:.\Generated_Source\PSoC4/BLE_1_gatt.c **** ##Function Name: CyBle_GattsWriteEventHandler
 210:.\Generated_Source\PSoC4/BLE_1_gatt.c **** *******************************************************************************
 211:.\Generated_Source\PSoC4/BLE_1_gatt.c **** 
 212:.\Generated_Source\PSoC4/BLE_1_gatt.c **** Summary:
 213:.\Generated_Source\PSoC4/BLE_1_gatt.c ****  Handles the Write Request Event for GATT service.
 214:.\Generated_Source\PSoC4/BLE_1_gatt.c **** 
 215:.\Generated_Source\PSoC4/BLE_1_gatt.c **** Parameters:
 216:.\Generated_Source\PSoC4/BLE_1_gatt.c ****  *eventParam: The pointer to the data structure specified by the event.
 217:.\Generated_Source\PSoC4/BLE_1_gatt.c **** 
 218:.\Generated_Source\PSoC4/BLE_1_gatt.c **** Return:
 219:.\Generated_Source\PSoC4/BLE_1_gatt.c ****  * CYBLE_GATT_ERR_CODE_T: An API result returns one of the following status 
 220:.\Generated_Source\PSoC4/BLE_1_gatt.c ****     values
 221:.\Generated_Source\PSoC4/BLE_1_gatt.c ****  * CYBLE_GATT_ERR_NONE - Write is successful.
 222:.\Generated_Source\PSoC4/BLE_1_gatt.c **** 
 223:.\Generated_Source\PSoC4/BLE_1_gatt.c **** ******************************************************************************/
 224:.\Generated_Source\PSoC4/BLE_1_gatt.c **** CYBLE_GATT_ERR_CODE_T CyBle_GattsWriteEventHandler(CYBLE_GATTS_WRITE_REQ_PARAM_T *eventParam)
 225:.\Generated_Source\PSoC4/BLE_1_gatt.c **** {
 363              		.loc 1 225 0
 364              		.cfi_startproc
 365 0000 90B5     		push	{r4, r7, lr}
 366              		.cfi_def_cfa_offset 12
 367              		.cfi_offset 4, -12
 368              		.cfi_offset 7, -8
 369              		.cfi_offset 14, -4
 370 0002 85B0     		sub	sp, sp, #20
 371              		.cfi_def_cfa_offset 32
 372 0004 00AF     		add	r7, sp, #0
 373              		.cfi_def_cfa_register 7
 374 0006 7860     		str	r0, [r7, #4]
 226:.\Generated_Source\PSoC4/BLE_1_gatt.c ****     CYBLE_GATT_ERR_CODE_T gattErr = CYBLE_GATT_ERR_NONE;
 375              		.loc 1 226 0
 376 0008 3B1C     		mov	r3, r7
 377 000a 0F33     		add	r3, r3, #15
 378 000c 0022     		mov	r2, #0
 379 000e 1A70     		strb	r2, [r3]
 227:.\Generated_Source\PSoC4/BLE_1_gatt.c ****     
 228:.\Generated_Source\PSoC4/BLE_1_gatt.c ****     /* Client Characteristic Configuration descriptor write request */
 229:.\Generated_Source\PSoC4/BLE_1_gatt.c ****     if(eventParam->handleValPair.attrHandle == cyBle_gatts.cccdHandle)
 380              		.loc 1 229 0
 381 0010 7B68     		ldr	r3, [r7, #4]
 382 0012 9A89     		ldrh	r2, [r3, #12]
 383 0014 0B23     		mov	r3, #11
 384 0016 9A42     		cmp	r2, r3
 385 0018 37D1     		bne	.L8
 230:.\Generated_Source\PSoC4/BLE_1_gatt.c ****     {
ARM GAS  C:\Users\PAVAND~1\AppData\Local\Temp\ccYk5Xa4.s 			page 12


 231:.\Generated_Source\PSoC4/BLE_1_gatt.c ****         /* Store value to database */
 232:.\Generated_Source\PSoC4/BLE_1_gatt.c ****         gattErr = CyBle_GattsWriteAttributeValue(&eventParam->handleValPair, 0u, 
 386              		.loc 1 232 0
 387 001a 7B68     		ldr	r3, [r7, #4]
 388 001c 1A1D     		add	r2, r3, #4
 389 001e 7B68     		ldr	r3, [r7, #4]
 390 0020 3C1C     		mov	r4, r7
 391 0022 0F34     		add	r4, r4, #15
 392 0024 101C     		mov	r0, r2
 393 0026 0021     		mov	r1, #0
 394 0028 1A1C     		mov	r2, r3
 395 002a 4023     		mov	r3, #64
 396 002c FFF7FEFF 		bl	CyBle_GattsWriteAttributeValue
 397 0030 031C     		mov	r3, r0
 398 0032 2370     		strb	r3, [r4]
 233:.\Generated_Source\PSoC4/BLE_1_gatt.c ****                         &eventParam->connHandle, CYBLE_GATT_DB_PEER_INITIATED);
 234:.\Generated_Source\PSoC4/BLE_1_gatt.c ****         
 235:.\Generated_Source\PSoC4/BLE_1_gatt.c ****         if(CYBLE_GATT_ERR_NONE == gattErr)
 399              		.loc 1 235 0
 400 0034 3B1C     		mov	r3, r7
 401 0036 0F33     		add	r3, r3, #15
 402 0038 1B78     		ldrb	r3, [r3]
 403 003a 002B     		cmp	r3, #0
 404 003c 1DD1     		bne	.L9
 236:.\Generated_Source\PSoC4/BLE_1_gatt.c ****         {
 237:.\Generated_Source\PSoC4/BLE_1_gatt.c ****             if(CYBLE_IS_INDICATION_ENABLED_IN_PTR(eventParam->handleValPair.value.val))
 405              		.loc 1 237 0
 406 003e 7B68     		ldr	r3, [r7, #4]
 407 0040 5B68     		ldr	r3, [r3, #4]
 408 0042 181C     		mov	r0, r3
 409 0044 FFF7FEFF 		bl	CyBle_Get16ByPtr
 410 0048 031C     		mov	r3, r0
 411 004a 1A1C     		mov	r2, r3
 412 004c 0223     		mov	r3, #2
 413 004e 1340     		and	r3, r2
 414 0050 9BB2     		uxth	r3, r3
 415 0052 002B     		cmp	r3, #0
 416 0054 08D0     		beq	.L10
 238:.\Generated_Source\PSoC4/BLE_1_gatt.c ****             {
 239:.\Generated_Source\PSoC4/BLE_1_gatt.c ****                 CyBle_ApplCallback((uint32)CYBLE_EVT_GATTS_INDICATION_ENABLED, eventParam);
 417              		.loc 1 239 0
 418 0056 104B     		ldr	r3, .L12
 419 0058 1B68     		ldr	r3, [r3]
 420 005a 8222     		mov	r2, #130
 421 005c 5100     		lsl	r1, r2, #1
 422 005e 7A68     		ldr	r2, [r7, #4]
 423 0060 081C     		mov	r0, r1
 424 0062 111C     		mov	r1, r2
 425 0064 9847     		blx	r3
 426 0066 08E0     		b	.L9
 427              	.L10:
 240:.\Generated_Source\PSoC4/BLE_1_gatt.c ****             }
 241:.\Generated_Source\PSoC4/BLE_1_gatt.c ****             else
 242:.\Generated_Source\PSoC4/BLE_1_gatt.c ****             {
 243:.\Generated_Source\PSoC4/BLE_1_gatt.c ****                 CyBle_ApplCallback((uint32)CYBLE_EVT_GATTS_INDICATION_DISABLED, eventParam);
 428              		.loc 1 243 0
 429 0068 0B4B     		ldr	r3, .L12
ARM GAS  C:\Users\PAVAND~1\AppData\Local\Temp\ccYk5Xa4.s 			page 13


 430 006a 1B68     		ldr	r3, [r3]
 431 006c 0622     		mov	r2, #6
 432 006e 111C     		mov	r1, r2
 433 0070 FF31     		add	r1, r1, #255
 434 0072 7A68     		ldr	r2, [r7, #4]
 435 0074 081C     		mov	r0, r1
 436 0076 111C     		mov	r1, r2
 437 0078 9847     		blx	r3
 438              	.L9:
 244:.\Generated_Source\PSoC4/BLE_1_gatt.c ****             }
 245:.\Generated_Source\PSoC4/BLE_1_gatt.c ****         }
 246:.\Generated_Source\PSoC4/BLE_1_gatt.c ****         cyBle_eventHandlerFlag &= (uint8)~CYBLE_CALLBACK;
 439              		.loc 1 246 0
 440 007a 084B     		ldr	r3, .L12+4
 441 007c 1B78     		ldrb	r3, [r3]
 442 007e DBB2     		uxtb	r3, r3
 443 0080 0122     		mov	r2, #1
 444 0082 9343     		bic	r3, r2
 445 0084 DAB2     		uxtb	r2, r3
 446 0086 054B     		ldr	r3, .L12+4
 447 0088 1A70     		strb	r2, [r3]
 448              	.L8:
 247:.\Generated_Source\PSoC4/BLE_1_gatt.c ****     }
 248:.\Generated_Source\PSoC4/BLE_1_gatt.c ****     return (gattErr);
 449              		.loc 1 248 0
 450 008a 3B1C     		mov	r3, r7
 451 008c 0F33     		add	r3, r3, #15
 452 008e 1B78     		ldrb	r3, [r3]
 249:.\Generated_Source\PSoC4/BLE_1_gatt.c **** }
 453              		.loc 1 249 0
 454 0090 181C     		mov	r0, r3
 455 0092 BD46     		mov	sp, r7
 456 0094 05B0     		add	sp, sp, #20
 457              		@ sp needed
 458 0096 90BD     		pop	{r4, r7, pc}
 459              	.L13:
 460              		.align	2
 461              	.L12:
 462 0098 00000000 		.word	CyBle_ApplCallback
 463 009c 00000000 		.word	cyBle_eventHandlerFlag
 464              		.cfi_endproc
 465              	.LFE3:
 466              		.size	CyBle_GattsWriteEventHandler, .-CyBle_GattsWriteEventHandler
 467              		.text
 468              	.Letext0:
 469              		.file 2 ".\\Generated_Source\\PSoC4\\cytypes.h"
 470              		.file 3 ".\\Generated_Source\\PSoC4\\BLE_1_Stack.h"
 471              		.file 4 ".\\Generated_Source\\PSoC4\\BLE_1_StackGatt.h"
 472              		.file 5 ".\\Generated_Source\\PSoC4\\BLE_1_StackGattServer.h"
 473              		.file 6 ".\\Generated_Source\\PSoC4\\BLE_1_StackGattDb.h"
 474              		.file 7 ".\\Generated_Source\\PSoC4\\BLE_1.h"
 475              		.file 8 ".\\Generated_Source\\PSoC4\\BLE_1_gatt.h"
 476              		.file 9 ".\\Generated_Source\\PSoC4\\BLE_1_eventHandler.h"