ARM GAS  C:\Users\PAVAND~1\AppData\Local\Temp\cce2IT1V.s 			page 1


   1              		.cpu cortex-m0
   2              		.fpu softvfp
   3              		.eabi_attribute 20, 1
   4              		.eabi_attribute 21, 1
   5              		.eabi_attribute 23, 3
   6              		.eabi_attribute 24, 1
   7              		.eabi_attribute 25, 1
   8              		.eabi_attribute 26, 1
   9              		.eabi_attribute 30, 6
  10              		.eabi_attribute 34, 0
  11              		.eabi_attribute 18, 4
  12              		.code	16
  13              		.file	"main.c"
  14              		.text
  15              	.Ltext0:
  16              		.cfi_sections	.debug_frame
  17              		.section	.text.main,"ax",%progbits
  18              		.align	2
  19              		.global	main
  20              		.code	16
  21              		.thumb_func
  22              		.type	main, %function
  23              	main:
  24              	.LFB35:
  25              		.file 1 ".\\main.c"
   1:.\main.c      **** /*****************************************************************************
   2:.\main.c      **** * Included headers
   3:.\main.c      **** *****************************************************************************/
   4:.\main.c      **** #include <main.h>
   5:.\main.c      **** #include <BLEApplications.h>
   6:.\main.c      **** #include <stdbool.h>
   7:.\main.c      **** #include <stdlib.h>
   8:.\main.c      **** 
   9:.\main.c      **** /*****************************************************************************
  10:.\main.c      **** * Function Prototypes
  11:.\main.c      **** *****************************************************************************/
  12:.\main.c      **** static void InitializeSystem(void);
  13:.\main.c      **** //static void HandleCapSenseSlider(void);
  14:.\main.c      **** static void HandleCapSenseProximity(void);
  15:.\main.c      **** 
  16:.\main.c      **** 
  17:.\main.c      **** int main()
  18:.\main.c      **** {
  26              		.loc 1 18 0
  27              		.cfi_startproc
  28 0000 90B5     		push	{r4, r7, lr}
  29              		.cfi_def_cfa_offset 12
  30              		.cfi_offset 4, -12
  31              		.cfi_offset 7, -8
  32              		.cfi_offset 14, -4
  33 0002 83B0     		sub	sp, sp, #12
  34              		.cfi_def_cfa_offset 24
  35 0004 00AF     		add	r7, sp, #0
  36              		.cfi_def_cfa_register 7
  19:.\main.c      ****     uint8 interruptStatus;
  20:.\main.c      ****     CYBLE_LP_MODE_T bleMode;
  21:.\main.c      ****     
ARM GAS  C:\Users\PAVAND~1\AppData\Local\Temp\cce2IT1V.s 			page 2


  22:.\main.c      ****     
  23:.\main.c      ****     /* This function will initialize the system resources such as BLE and CapSense */
  24:.\main.c      ****     InitializeSystem();
  37              		.loc 1 24 0
  38 0006 FFF7FEFF 		bl	InitializeSystem
  39              	.L5:
  25:.\main.c      ****      
  26:.\main.c      ****     for(;;)
  27:.\main.c      ****     {
  28:.\main.c      ****         /*Process event callback to handle BLE events. The events generated and 
  29:.\main.c      **** 		* used for this application are inside the 'CustomEventHandler' routine*/
  30:.\main.c      ****               
  31:.\main.c      ****         if(TRUE == deviceConnected)
  40              		.loc 1 31 0
  41 000a 174B     		ldr	r3, .L6
  42 000c 1B78     		ldrb	r3, [r3]
  43 000e 012B     		cmp	r3, #1
  44 0010 03D1     		bne	.L2
  32:.\main.c      **** 		{
  33:.\main.c      **** 			UpdateNotificationCCCD();
  45              		.loc 1 33 0
  46 0012 FFF7FEFF 		bl	UpdateNotificationCCCD
  34:.\main.c      ****             HandleCapSenseProximity();       
  47              		.loc 1 34 0
  48 0016 FFF7FEFF 		bl	HandleCapSenseProximity
  49              	.L2:
  35:.\main.c      ****             /* Send CapSense Slider data when respective notification is enabled */
  36:.\main.c      **** //			if(TRUE == sendCapSenseSliderNotifications)
  37:.\main.c      **** //			{
  38:.\main.c      **** //				HandleCapSenseSlider(); 
  39:.\main.c      **** //			}       
  40:.\main.c      ****         }
  41:.\main.c      ****          
  42:.\main.c      ****             bleMode = CyBle_EnterLPM(CYBLE_BLESS_DEEPSLEEP);
  50              		.loc 1 42 0
  51 001a FC1D     		add	r4, r7, #7
  52 001c 0320     		mov	r0, #3
  53 001e FFF7FEFF 		bl	CyBle_EnterLPM
  54 0022 031C     		mov	r3, r0
  55 0024 2370     		strb	r3, [r4]
  43:.\main.c      ****             
  44:.\main.c      ****             interruptStatus = CyEnterCriticalSection();
  56              		.loc 1 44 0
  57 0026 BC1D     		add	r4, r7, #6
  58 0028 FFF7FEFF 		bl	CyEnterCriticalSection
  59 002c 031C     		mov	r3, r0
  60 002e 2370     		strb	r3, [r4]
  45:.\main.c      ****         
  46:.\main.c      ****             if(CYBLE_BLESS_DEEPSLEEP == bleMode)
  61              		.loc 1 46 0
  62 0030 FB1D     		add	r3, r7, #7
  63 0032 1B78     		ldrb	r3, [r3]
  64 0034 032B     		cmp	r3, #3
  65 0036 07D1     		bne	.L3
  47:.\main.c      ****             {
  48:.\main.c      ****                 if((CyBle_GetBleSsState() == CYBLE_BLESS_STATE_ECO_ON) ||
  66              		.loc 1 48 0
ARM GAS  C:\Users\PAVAND~1\AppData\Local\Temp\cce2IT1V.s 			page 3


  67 0038 FFF7FEFF 		bl	CyBle_GetBleSsState
  68 003c 031C     		mov	r3, r0
  69 003e 042B     		cmp	r3, #4
  70 0040 09D0     		beq	.L4
  49:.\main.c      ****                    (CyBle_GetBleSsState() == CYBLE_BLESS_STATE_DEEPSLEEP))
  71              		.loc 1 49 0 discriminator 1
  72 0042 FFF7FEFF 		bl	CyBle_GetBleSsState
  73 0046 06E0     		b	.L4
  74              	.L3:
  50:.\main.c      ****                 {
  51:.\main.c      ****                         //CySysPmDeepSleep();
  52:.\main.c      ****                 }
  53:.\main.c      ****            }else{
  54:.\main.c      ****                 if(CyBle_GetBleSsState() != CYBLE_BLESS_STATE_EVENT_CLOSE)
  75              		.loc 1 54 0
  76 0048 FFF7FEFF 		bl	CyBle_GetBleSsState
  77 004c 031C     		mov	r3, r0
  78 004e 022B     		cmp	r3, #2
  79 0050 01D0     		beq	.L4
  55:.\main.c      ****                 {
  56:.\main.c      ****                     CySysPmSleep();
  80              		.loc 1 56 0
  81 0052 FFF7FEFF 		bl	CySysPmSleep
  82              	.L4:
  57:.\main.c      ****                 }
  58:.\main.c      ****             }
  59:.\main.c      ****             CyExitCriticalSection(interruptStatus);
  83              		.loc 1 59 0
  84 0056 BB1D     		add	r3, r7, #6
  85 0058 1B78     		ldrb	r3, [r3]
  86 005a 181C     		mov	r0, r3
  87 005c FFF7FEFF 		bl	CyExitCriticalSection
  60:.\main.c      ****              CyBle_ProcessEvents();
  88              		.loc 1 60 0
  89 0060 FFF7FEFF 		bl	CyBle_ProcessEvents
  61:.\main.c      ****         }
  90              		.loc 1 61 0
  91 0064 D1E7     		b	.L5
  92              	.L7:
  93 0066 C046     		.align	2
  94              	.L6:
  95 0068 00000000 		.word	deviceConnected
  96              		.cfi_endproc
  97              	.LFE35:
  98              		.size	main, .-main
  99              		.section	.text.InitializeSystem,"ax",%progbits
 100              		.align	2
 101              		.code	16
 102              		.thumb_func
 103              		.type	InitializeSystem, %function
 104              	InitializeSystem:
 105              	.LFB36:
  62:.\main.c      ****         if(enterHibernateFlag)
  63:.\main.c      ****         {
  64:.\main.c      ****             /* Stop the BLE component */
  65:.\main.c      ****             CyBle_Stop();
  66:.\main.c      ****             
ARM GAS  C:\Users\PAVAND~1\AppData\Local\Temp\cce2IT1V.s 			page 4


  67:.\main.c      ****             /* Enable the Hibernate wakeup functionality */
  68:.\main.c      ****             Switch_2_ClearInterrupt();
  69:.\main.c      ****             ISR_Start();
  70:.\main.c      ****              
  71:.\main.c      ****             /* Enter hibernate mode */
  72:.\main.c      ****             CySysPmHibernate(); 
  73:.\main.c      ****           
  74:.\main.c      ****         }
  75:.\main.c      ****         	
  76:.\main.c      **** }
  77:.\main.c      **** 
  78:.\main.c      **** 
  79:.\main.c      **** /*******************************************************************************
  80:.\main.c      **** * Function Name: InitializeSystem
  81:.\main.c      **** ********************************************************************************
  82:.\main.c      **** * Summary:
  83:.\main.c      **** * Start the components and initialize system.
  84:.\main.c      **** *
  85:.\main.c      **** * Parameters:
  86:.\main.c      **** *  void
  87:.\main.c      **** *
  88:.\main.c      **** * Return:
  89:.\main.c      **** *  void
  90:.\main.c      **** *
  91:.\main.c      **** *******************************************************************************/
  92:.\main.c      **** void InitializeSystem(void)
  93:.\main.c      **** {
 106              		.loc 1 93 0
 107              		.cfi_startproc
 108 0000 80B5     		push	{r7, lr}
 109              		.cfi_def_cfa_offset 8
 110              		.cfi_offset 7, -8
 111              		.cfi_offset 14, -4
 112 0002 00AF     		add	r7, sp, #0
 113              		.cfi_def_cfa_register 7
  94:.\main.c      **** 	/* Enable global interrupt mask */
  95:.\main.c      **** 	CyGlobalIntEnable; 
 114              		.loc 1 95 0
 115              	@ 95 ".\main.c" 1
 116 0004 62B6     		CPSIE   i
 117              	@ 0 "" 2
  96:.\main.c      **** 		
  97:.\main.c      **** 	/* Start BLE component and register the CustomEventHandler function. This 
  98:.\main.c      **** 	 * function exposes the events from BLE component for application use */
  99:.\main.c      ****     CyBle_Start(CustomEventHandler);
 118              		.loc 1 99 0
 119              		.code	16
 120 0006 114B     		ldr	r3, .L9
 121 0008 181C     		mov	r0, r3
 122 000a FFF7FEFF 		bl	CyBle_Start
 100:.\main.c      ****     CyBle_ProcessEvents();
 123              		.loc 1 100 0
 124 000e FFF7FEFF 		bl	CyBle_ProcessEvents
 101:.\main.c      ****     
 102:.\main.c      **** 	/* Start both the PrISM components for LED control*/
 103:.\main.c      ****     PRS_1_Start();
 125              		.loc 1 103 0
ARM GAS  C:\Users\PAVAND~1\AppData\Local\Temp\cce2IT1V.s 			page 5


 126 0012 FFF7FEFF 		bl	PRS_1_Start
 104:.\main.c      ****     PRS_2_Start();
 127              		.loc 1 104 0
 128 0016 FFF7FEFF 		bl	PRS_2_Start
 105:.\main.c      **** 	
 106:.\main.c      **** 	/* The RGB LED on BLE Pioneer kit are active low. Drive HIGH on 
 107:.\main.c      **** 	 * pin for OFF and drive LOW on pin for ON*/
 108:.\main.c      **** 	PRS_1_WritePulse0(RGB_LED_OFF);
 129              		.loc 1 108 0
 130 001a FF20     		mov	r0, #255
 131 001c FFF7FEFF 		bl	PRS_1_WritePulse0
 109:.\main.c      **** 	PRS_1_WritePulse1(RGB_LED_OFF);
 132              		.loc 1 109 0
 133 0020 FF20     		mov	r0, #255
 134 0022 FFF7FEFF 		bl	PRS_1_WritePulse1
 110:.\main.c      **** 	PRS_2_WritePulse0(RGB_LED_OFF);
 135              		.loc 1 110 0
 136 0026 FF20     		mov	r0, #255
 137 0028 FFF7FEFF 		bl	PRS_2_WritePulse0
 111:.\main.c      **** 	
 112:.\main.c      **** 	/* Set Drive mode of output pins from HiZ to Strong */
 113:.\main.c      **** 	RED_SetDriveMode(RED_DM_STRONG);
 138              		.loc 1 113 0
 139 002c 0620     		mov	r0, #6
 140 002e FFF7FEFF 		bl	RED_SetDriveMode
 114:.\main.c      **** 	GREEN_SetDriveMode(GREEN_DM_STRONG);
 141              		.loc 1 114 0
 142 0032 0620     		mov	r0, #6
 143 0034 FFF7FEFF 		bl	GREEN_SetDriveMode
 115:.\main.c      **** 	BLUE_SetDriveMode(BLUE_DM_STRONG);
 144              		.loc 1 115 0
 145 0038 0620     		mov	r0, #6
 146 003a FFF7FEFF 		bl	BLUE_SetDriveMode
 116:.\main.c      **** 	
 117:.\main.c      **** 	/* Initialize CapSense component and initialize baselines*/
 118:.\main.c      **** 	CapSense_Start();
 147              		.loc 1 118 0
 148 003e FFF7FEFF 		bl	CapSense_Start
 119:.\main.c      **** 	CapSense_InitializeAllBaselines();
 149              		.loc 1 119 0
 150 0042 FFF7FEFF 		bl	CapSense_InitializeAllBaselines
 120:.\main.c      **** 
 121:.\main.c      **** }
 151              		.loc 1 121 0
 152 0046 BD46     		mov	sp, r7
 153              		@ sp needed
 154 0048 80BD     		pop	{r7, pc}
 155              	.L10:
 156 004a C046     		.align	2
 157              	.L9:
 158 004c 00000000 		.word	CustomEventHandler
 159              		.cfi_endproc
 160              	.LFE36:
 161              		.size	InitializeSystem, .-InitializeSystem
 162              		.section	.text.HandleCapSenseProximity,"ax",%progbits
 163              		.align	2
 164              		.code	16
ARM GAS  C:\Users\PAVAND~1\AppData\Local\Temp\cce2IT1V.s 			page 6


 165              		.thumb_func
 166              		.type	HandleCapSenseProximity, %function
 167              	HandleCapSenseProximity:
 168              	.LFB37:
 122:.\main.c      **** 
 123:.\main.c      **** //-----------------------------Exercise 1 Main Function---------------------------------------//
 124:.\main.c      **** void HandleCapSenseProximity(void){
 169              		.loc 1 124 0
 170              		.cfi_startproc
 171 0000 90B5     		push	{r4, r7, lr}
 172              		.cfi_def_cfa_offset 12
 173              		.cfi_offset 4, -12
 174              		.cfi_offset 7, -8
 175              		.cfi_offset 14, -4
 176 0002 83B0     		sub	sp, sp, #12
 177              		.cfi_def_cfa_offset 24
 178 0004 00AF     		add	r7, sp, #0
 179              		.cfi_def_cfa_register 7
 125:.\main.c      ****     
 126:.\main.c      **** 	uint8 prox;
 127:.\main.c      ****     CapSense_EnableWidget(CapSense_PROXIMITYSENSOR0__PROX); 
 180              		.loc 1 127 0
 181 0006 0020     		mov	r0, #0
 182 0008 FFF7FEFF 		bl	CapSense_EnableWidget
 128:.\main.c      ****     CapSense_UpdateEnabledBaselines();	
 183              		.loc 1 128 0
 184 000c FFF7FEFF 		bl	CapSense_UpdateEnabledBaselines
 129:.\main.c      ****     CapSense_ScanWidget(CapSense_PROXIMITYSENSOR0__PROX);	
 185              		.loc 1 129 0
 186 0010 0020     		mov	r0, #0
 187 0012 FFF7FEFF 		bl	CapSense_ScanWidget
 130:.\main.c      ****   
 131:.\main.c      ****     while(CapSense_IsBusy());
 188              		.loc 1 131 0
 189 0016 C046     		mov	r8, r8
 190              	.L12:
 191              		.loc 1 131 0 is_stmt 0 discriminator 1
 192 0018 FFF7FEFF 		bl	CapSense_IsBusy
 193 001c 031C     		mov	r3, r0
 194 001e 002B     		cmp	r3, #0
 195 0020 FAD1     		bne	.L12
 132:.\main.c      ****     prox = CapSense_GetDiffCountData(CapSense_PROXIMITYSENSOR0__PROX);
 196              		.loc 1 132 0 is_stmt 1
 197 0022 FC1D     		add	r4, r7, #7
 198 0024 0020     		mov	r0, #0
 199 0026 FFF7FEFF 		bl	CapSense_GetDiffCountData
 200 002a 031C     		mov	r3, r0
 201 002c 2370     		strb	r3, [r4]
 133:.\main.c      ****     
 134:.\main.c      ****     SendCapSenseNotification((uint8)prox);
 202              		.loc 1 134 0
 203 002e FB1D     		add	r3, r7, #7
 204 0030 1B78     		ldrb	r3, [r3]
 205 0032 181C     		mov	r0, r3
 206 0034 FFF7FEFF 		bl	SendCapSenseNotification
 135:.\main.c      ****     
 136:.\main.c      ****     if (deviceConnected == FALSE){
ARM GAS  C:\Users\PAVAND~1\AppData\Local\Temp\cce2IT1V.s 			page 7


 207              		.loc 1 136 0
 208 0038 034B     		ldr	r3, .L14
 209 003a 1B78     		ldrb	r3, [r3]
 210 003c 002B     		cmp	r3, #0
 211 003e 00D1     		bne	.L11
 137:.\main.c      ****         return;
 212              		.loc 1 137 0
 213 0040 C046     		mov	r8, r8
 214              	.L11:
 138:.\main.c      ****     }
 139:.\main.c      **** }	
 215              		.loc 1 139 0
 216 0042 BD46     		mov	sp, r7
 217 0044 03B0     		add	sp, sp, #12
 218              		@ sp needed
 219 0046 90BD     		pop	{r4, r7, pc}
 220              	.L15:
 221              		.align	2
 222              	.L14:
 223 0048 00000000 		.word	deviceConnected
 224              		.cfi_endproc
 225              	.LFE37:
 226              		.size	HandleCapSenseProximity, .-HandleCapSenseProximity
 227              		.text
 228              	.Letext0:
 229              		.file 2 ".\\Generated_Source\\PSoC4/cytypes.h"
 230              		.file 3 ".\\Generated_Source\\PSoC4/BLE_1_Stack.h"
 231              		.file 4 "./BLEApplications.h"